; ModuleID = '20/1145.c'
source_filename = "20/1145.c"
target datalayout = "e-m:e-p270:32:32-p271:32:32-p272:64:64-i64:64-f80:128-n8:16:32:64-S128"
target triple = "x86_64-pc-linux-gnu"

@.str = private unnamed_addr constant [5 x i8] c"%s%s\00", align 1
@.str.1 = private unnamed_addr constant [3 x i8] c"%c\00", align 1
@.str.2 = private unnamed_addr constant [3 x i8] c"%s\00", align 1
@.str.3 = private unnamed_addr constant [2 x i8] c"\0A\00", align 1

; Function Attrs: noinline nounwind uwtable
define dso_local void @main() #0 {
  %1 = alloca [14 x i8], align 1
  %2 = alloca [4 x i8], align 1
  %3 = alloca i8, align 1
  %4 = alloca i32, align 4
  %5 = alloca i32, align 4
  br label %6

6:                                                ; preds = %65, %0
  %7 = getelementptr inbounds [14 x i8], [14 x i8]* %1, i64 0, i64 0
  %8 = getelementptr inbounds [4 x i8], [4 x i8]* %2, i64 0, i64 0
  %9 = call i32 (i8*, ...) @__isoc99_scanf(i8* getelementptr inbounds ([5 x i8], [5 x i8]* @.str, i64 0, i64 0), i8* %7, i8* %8)
  %10 = icmp ne i32 %9, -1
  br i1 %10, label %11, label %67

11:                                               ; preds = %6
  %12 = getelementptr inbounds [14 x i8], [14 x i8]* %1, i64 0, i64 0
  %13 = load i8, i8* %12, align 1
  store i8 %13, i8* %3, align 1
  store i32 0, i32* %4, align 4
  br label %14

14:                                               ; preds = %37, %11
  %15 = load i32, i32* %4, align 4
  %16 = sext i32 %15 to i64
  %17 = getelementptr inbounds [14 x i8], [14 x i8]* %1, i64 0, i64 %16
  %18 = load i8, i8* %17, align 1
  %19 = sext i8 %18 to i32
  %20 = icmp ne i32 %19, 0
  br i1 %20, label %21, label %40

21:                                               ; preds = %14
  %22 = load i32, i32* %4, align 4
  %23 = sext i32 %22 to i64
  %24 = getelementptr inbounds [14 x i8], [14 x i8]* %1, i64 0, i64 %23
  %25 = load i8, i8* %24, align 1
  %26 = sext i8 %25 to i32
  %27 = load i8, i8* %3, align 1
  %28 = sext i8 %27 to i32
  %29 = icmp sgt i32 %26, %28
  br i1 %29, label %30, label %36

30:                                               ; preds = %21
  %31 = load i32, i32* %4, align 4
  %32 = sext i32 %31 to i64
  %33 = getelementptr inbounds [14 x i8], [14 x i8]* %1, i64 0, i64 %32
  %34 = load i8, i8* %33, align 1
  store i8 %34, i8* %3, align 1
  %35 = load i32, i32* %4, align 4
  store i32 %35, i32* %5, align 4
  br label %36

36:                                               ; preds = %30, %21
  br label %37

37:                                               ; preds = %36
  %38 = load i32, i32* %4, align 4
  %39 = add nsw i32 %38, 1
  store i32 %39, i32* %4, align 4
  br label %14

40:                                               ; preds = %14
  store i32 0, i32* %4, align 4
  br label %41

41:                                               ; preds = %62, %40
  %42 = load i32, i32* %4, align 4
  %43 = sext i32 %42 to i64
  %44 = getelementptr inbounds [14 x i8], [14 x i8]* %1, i64 0, i64 %43
  %45 = load i8, i8* %44, align 1
  %46 = sext i8 %45 to i32
  %47 = icmp ne i32 %46, 0
  br i1 %47, label %48, label %65

48:                                               ; preds = %41
  %49 = load i32, i32* %4, align 4
  %50 = sext i32 %49 to i64
  %51 = getelementptr inbounds [14 x i8], [14 x i8]* %1, i64 0, i64 %50
  %52 = load i8, i8* %51, align 1
  %53 = sext i8 %52 to i32
  %54 = call i32 (i8*, ...) @printf(i8* getelementptr inbounds ([3 x i8], [3 x i8]* @.str.1, i64 0, i64 0), i32 %53)
  %55 = load i32, i32* %4, align 4
  %56 = load i32, i32* %5, align 4
  %57 = icmp eq i32 %55, %56
  br i1 %57, label %58, label %61

58:                                               ; preds = %48
  %59 = getelementptr inbounds [4 x i8], [4 x i8]* %2, i64 0, i64 0
  %60 = call i32 (i8*, ...) @printf(i8* getelementptr inbounds ([3 x i8], [3 x i8]* @.str.2, i64 0, i64 0), i8* %59)
  br label %61

61:                                               ; preds = %58, %48
  br label %62

62:                                               ; preds = %61
  %63 = load i32, i32* %4, align 4
  %64 = add nsw i32 %63, 1
  store i32 %64, i32* %4, align 4
  br label %41

65:                                               ; preds = %41
  %66 = call i32 (i8*, ...) @printf(i8* getelementptr inbounds ([2 x i8], [2 x i8]* @.str.3, i64 0, i64 0))
  br label %6

67:                                               ; preds = %6
  ret void
}

declare dso_local i32 @__isoc99_scanf(i8*, ...) #1

declare dso_local i32 @printf(i8*, ...) #1


!llvm.module.flags = !{!0}
!llvm.ident = !{!1}

!0 = !{i32 1, !"wchar_size", i32 4}
!1 = !{!"clang version 10.0.0-4ubuntu1 "}
